target datalayout = "e-m:e-p270:32:32-p271:32:32-p272:64:64-i64:64-i128:128-f80:128-n8:16:32:64-S128"
target triple = "x86_64-pc-linux-gnu"

%struct.bipbuf_t = type { i64, i32, i32, i32, i32, [0 x i8] }

; Function Attrs: nounwind uwtable
define internal void @__check_for_switch_to_b(ptr noundef %0) #0 {
  %2 = alloca ptr, align 8
  store ptr %0, ptr %2, align 8, !tbaa !4
  %3 = load ptr, ptr %2, align 8, !tbaa !4
  %4 = getelementptr inbounds nuw %struct.bipbuf_t, ptr %3, i32 0, i32 0
  %5 = load i64, ptr %4, align 8, !tbaa !10
  %6 = load ptr, ptr %2, align 8, !tbaa !4
  %7 = getelementptr inbounds nuw %struct.bipbuf_t, ptr %6, i32 0, i32 2
  %8 = load i32, ptr %7, align 4, !tbaa !8
  %9 = zext i32 %8 to i64
  %10 = sub i64 %5, %9
  %11 = load ptr, ptr %2, align 8, !tbaa !4
  %12 = getelementptr inbounds nuw %struct.bipbuf_t, ptr %11, i32 0, i32 1
  %13 = load i32, ptr %12, align 8, !tbaa !8
  %14 = load ptr, ptr %2, align 8, !tbaa !4
  %15 = getelementptr inbounds nuw %struct.bipbuf_t, ptr %14, i32 0, i32 3
  %16 = load i32, ptr %15, align 8, !tbaa !8
  %17 = sub i32 %13, %16
  %18 = zext i32 %17 to i64
  %19 = icmp ult i64 %10, %18
  br i1 %19, label %20, label %23

20:                                               ; preds = %1
  %21 = load ptr, ptr %2, align 8, !tbaa !4
  %22 = getelementptr inbounds nuw %struct.bipbuf_t, ptr %21, i32 0, i32 4
  store i32 1, ptr %22, align 4, !tbaa !8
  br label %23

23:                                               ; preds = %20, %1
  ret void
}

; Function Attrs: nounwind uwtable
define dso_local i32 @bipbuf_is_empty(ptr noundef %0) #0 {
  %2 = alloca ptr, align 8
  store ptr %0, ptr %2, align 8, !tbaa !4
  %3 = load ptr, ptr %2, align 8, !tbaa !4
  %4 = getelementptr inbounds nuw %struct.bipbuf_t, ptr %3, i32 0, i32 1
  %5 = load i32, ptr %4, align 8, !tbaa !8
  %6 = load ptr, ptr %2, align 8, !tbaa !4
  %7 = getelementptr inbounds nuw %struct.bipbuf_t, ptr %6, i32 0, i32 2
  %8 = load i32, ptr %7, align 4, !tbaa !8
  %9 = icmp eq i32 %5, %8
  %10 = zext i1 %9 to i32
  ret i32 %10
}

; Function Attrs: nounwind uwtable
define dso_local ptr @bipbuf_poll(ptr noundef %0, i32 noundef %1) #0 {
  %3 = alloca ptr, align 8
  %4 = alloca ptr, align 8
  %5 = alloca i32, align 4
  %6 = alloca ptr, align 8
  store ptr %0, ptr %4, align 8, !tbaa !4
  store i32 %1, ptr %5, align 4, !tbaa !8
  %7 = load ptr, ptr %4, align 8, !tbaa !4
  %8 = call i32 @bipbuf_is_empty(ptr noundef %7)
  %9 = icmp ne i32 %8, 0
  br i1 %9, label %10, label %11

10:                                               ; preds = %2
  store ptr null, ptr %3, align 8
  br label %70

11:                                               ; preds = %2
  %12 = load ptr, ptr %4, align 8, !tbaa !4
  %13 = getelementptr inbounds nuw %struct.bipbuf_t, ptr %12, i32 0, i32 0
  %14 = load i64, ptr %13, align 8, !tbaa !10
  %15 = load ptr, ptr %4, align 8, !tbaa !4
  %16 = getelementptr inbounds nuw %struct.bipbuf_t, ptr %15, i32 0, i32 1
  %17 = load i32, ptr %16, align 8, !tbaa !8
  %18 = load i32, ptr %5, align 4, !tbaa !8
  %19 = add i32 %17, %18
  %20 = zext i32 %19 to i64
  %21 = icmp ult i64 %14, %20
  br i1 %21, label %22, label %23

22:                                               ; preds = %11
  store ptr null, ptr %3, align 8
  br label %70

23:                                               ; preds = %11
  call void @llvm.lifetime.start.p0(i64 8, ptr %6) #5
  %24 = load ptr, ptr %4, align 8, !tbaa !4
  %25 = getelementptr inbounds nuw %struct.bipbuf_t, ptr %24, i32 0, i32 5
  %26 = getelementptr inbounds [0 x i8], ptr %25, i64 0, i64 0
  %27 = load ptr, ptr %4, align 8, !tbaa !4
  %28 = getelementptr inbounds nuw %struct.bipbuf_t, ptr %27, i32 0, i32 1
  %29 = load i32, ptr %28, align 8, !tbaa !8
  %30 = zext i32 %29 to i64
  %31 = getelementptr inbounds nuw i8, ptr %26, i64 %30
  store ptr %31, ptr %6, align 8, !tbaa !4
  %32 = load i32, ptr %5, align 4, !tbaa !8
  %33 = load ptr, ptr %4, align 8, !tbaa !4
  %34 = getelementptr inbounds nuw %struct.bipbuf_t, ptr %33, i32 0, i32 1
  %35 = load i32, ptr %34, align 8, !tbaa !8
  %36 = add i32 %35, %32
  store i32 %36, ptr %34, align 8, !tbaa !8
  %37 = load ptr, ptr %4, align 8, !tbaa !4
  %38 = getelementptr inbounds nuw %struct.bipbuf_t, ptr %37, i32 0, i32 1
  %39 = load i32, ptr %38, align 8, !tbaa !8
  %40 = load ptr, ptr %4, align 8, !tbaa !4
  %41 = getelementptr inbounds nuw %struct.bipbuf_t, ptr %40, i32 0, i32 2
  %42 = load i32, ptr %41, align 4, !tbaa !8
  %43 = icmp eq i32 %39, %42
  br i1 %43, label %44, label %67

44:                                               ; preds = %23
  %45 = load ptr, ptr %4, align 8, !tbaa !4
  %46 = getelementptr inbounds nuw %struct.bipbuf_t, ptr %45, i32 0, i32 4
  %47 = load i32, ptr %46, align 4, !tbaa !8
  %48 = icmp eq i32 1, %47
  br i1 %48, label %49, label %61

49:                                               ; preds = %44
  %50 = load ptr, ptr %4, align 8, !tbaa !4
  %51 = getelementptr inbounds nuw %struct.bipbuf_t, ptr %50, i32 0, i32 1
  store i32 0, ptr %51, align 8, !tbaa !8
  %52 = load ptr, ptr %4, align 8, !tbaa !4
  %53 = getelementptr inbounds nuw %struct.bipbuf_t, ptr %52, i32 0, i32 3
  %54 = load i32, ptr %53, align 8, !tbaa !8
  %55 = load ptr, ptr %4, align 8, !tbaa !4
  %56 = getelementptr inbounds nuw %struct.bipbuf_t, ptr %55, i32 0, i32 2
  store i32 %54, ptr %56, align 4, !tbaa !8
  %57 = load ptr, ptr %4, align 8, !tbaa !4
  %58 = getelementptr inbounds nuw %struct.bipbuf_t, ptr %57, i32 0, i32 4
  store i32 0, ptr %58, align 4, !tbaa !8
  %59 = load ptr, ptr %4, align 8, !tbaa !4
  %60 = getelementptr inbounds nuw %struct.bipbuf_t, ptr %59, i32 0, i32 3
  store i32 0, ptr %60, align 8, !tbaa !8
  br label %66

61:                                               ; preds = %44
  %62 = load ptr, ptr %4, align 8, !tbaa !4
  %63 = getelementptr inbounds nuw %struct.bipbuf_t, ptr %62, i32 0, i32 2
  store i32 0, ptr %63, align 4, !tbaa !8
  %64 = load ptr, ptr %4, align 8, !tbaa !4
  %65 = getelementptr inbounds nuw %struct.bipbuf_t, ptr %64, i32 0, i32 1
  store i32 0, ptr %65, align 8, !tbaa !8
  br label %66

66:                                               ; preds = %61, %49
  br label %67

67:                                               ; preds = %66, %23
  %68 = load ptr, ptr %4, align 8, !tbaa !4
  call void @__check_for_switch_to_b(ptr noundef %68)
  %69 = load ptr, ptr %6, align 8, !tbaa !4
  store ptr %69, ptr %3, align 8
  call void @llvm.lifetime.end.p0(i64 8, ptr %6) #5
  br label %70

70:                                               ; preds = %67, %22, %10
  %71 = load ptr, ptr %3, align 8
  ret ptr %71
}