; Function Attrs: mustprogress nofree norecurse nosync nounwind willreturn memory(argmem: readwrite) uwtable
define dso_local ptr @bipbuf_poll(ptr noundef captures(ret: address, provenance) %0, i32 noundef %1) local_unnamed_addr #6 {
  %3 = getelementptr inbounds nuw i8, ptr %0, i64 8
  %4 = load i32, ptr %3, align 8, !tbaa !4
  %5 = getelementptr inbounds nuw i8, ptr %0, i64 12
  %6 = load i32, ptr %5, align 4, !tbaa !4
  %.not = icmp eq i32 %4, %6
  br i1 %.not, label %__check_for_switch_to_b.exit, label %7

7:                                                ; preds = %2
  %8 = load i64, ptr %0, align 8, !tbaa !8
  %9 = add i32 %4, %1
  %10 = zext i32 %9 to i64
  %11 = icmp ult i64 %8, %10
  br i1 %11, label %__check_for_switch_to_b.exit, label %12

12:                                               ; preds = %7
  %13 = getelementptr inbounds nuw i8, ptr %0, i64 24
  %14 = zext i32 %4 to i64
  %15 = getelementptr inbounds nuw i8, ptr %13, i64 %14
  store i32 %9, ptr %3, align 8, !tbaa !4
  %16 = icmp eq i32 %9, %6
  br i1 %16, label %17, label %25

17:                                               ; preds = %12
  %18 = getelementptr inbounds nuw i8, ptr %0, i64 20
  %19 = load i32, ptr %18, align 4, !tbaa !4
  %20 = icmp eq i32 %19, 1
  br i1 %20, label %21, label %24

21:                                               ; preds = %17
  store i32 0, ptr %3, align 8, !tbaa !4
  %22 = getelementptr inbounds nuw i8, ptr %0, i64 16
  %23 = load i32, ptr %22, align 8, !tbaa !4
  store i32 %23, ptr %5, align 4, !tbaa !4
  store i32 0, ptr %18, align 4, !tbaa !4
  store i32 0, ptr %22, align 8, !tbaa !4
  br label %25

24:                                               ; preds = %17
  store i32 0, ptr %5, align 4, !tbaa !4
  store i32 0, ptr %3, align 8, !tbaa !4
  br label %25

25:                                               ; preds = %21, %24, %12
  %26 = phi i32 [ 0, %21 ], [ 0, %24 ], [ %9, %12 ]
  %27 = phi i32 [ %23, %21 ], [ 0, %24 ], [ %6, %12 ]
  %28 = zext i32 %27 to i64
  %29 = sub i64 %8, %28
  %30 = getelementptr inbounds nuw i8, ptr %0, i64 16
  %31 = load i32, ptr %30, align 8, !tbaa !4
  %32 = sub i32 %26, %31
  %33 = zext i32 %32 to i64
  %34 = icmp ult i64 %29, %33
  br i1 %34, label %35, label %__check_for_switch_to_b.exit

35:                                               ; preds = %25
  %36 = getelementptr inbounds nuw i8, ptr %0, i64 20
  store i32 1, ptr %36, align 4, !tbaa !4
  br label %__check_for_switch_to_b.exit

__check_for_switch_to_b.exit:                     ; preds = %35, %25, %7, %2
  %.0 = phi ptr [ null, %2 ], [ null, %7 ], [ %15, %25 ], [ %15, %35 ]
  ret ptr %.0
}